target datalayout = "e-m:e-p270:32:32-p271:32:32-p272:64:64-i64:64-i128:128-f80:128-n8:16:32:64-S128"
target triple = "x86_64-pc-linux-gnu"

%struct.stat = type { i64, i64, i64, i32, i32, i32, i32, i64, i64, i64, i64, %struct.timespec, %struct.timespec, %struct.timespec, [3 x i64] }
%struct.timespec = type { i64, i64 }
%struct.conf_file_options = type { ptr, i32, ptr, ptr, ptr, ptr, ptr }

@inited = internal global i8 0, align 1
@.str = private unnamed_addr constant [14 x i8] c"acct_gather.c\00", align 1
@__func__.acct_gather_conf_init = private unnamed_addr constant [22 x i8] c"acct_gather_conf_init\00", align 1
@.str.1 = private unnamed_addr constant [17 x i8] c"acct_gather.conf\00", align 1
@.str.2 = private unnamed_addr constant [30 x i8] c"No acct_gather.conf file (%s)\00", align 1
@.str.3 = private unnamed_addr constant [33 x i8] c"Reading acct_gather.conf file %s\00", align 1
@.str.4 = private unnamed_addr constant [234 x i8] c"Could not open/read/parse acct_gather.conf file %s.  Many times this is because you have defined options for plugins that are not loaded.  Please check your slurm.conf file and make sure the plugins for the options listed are loaded.\00", align 1
@acct_gather_options_buf = internal global ptr null, align 8

; Function Attrs: nounwind uwtable
define dso_local i32 @acct_gather_conf_init() #0 {
  %1 = alloca i32, align 4
  %2 = alloca ptr, align 8
  %3 = alloca ptr, align 8
  %4 = alloca ptr, align 8
  %5 = alloca i32, align 4
  %6 = alloca i32, align 4
  %7 = alloca %struct.stat, align 8
  %8 = alloca i32, align 4
  %9 = alloca i32, align 4
  call void @llvm.lifetime.start.p0(i64 8, ptr %2) #6
  store ptr null, ptr %2, align 8
  call void @llvm.lifetime.start.p0(i64 8, ptr %3) #6
  store ptr null, ptr %3, align 8
  call void @llvm.lifetime.start.p0(i64 8, ptr %4) #6
  store ptr null, ptr %4, align 8
  call void @llvm.lifetime.start.p0(i64 4, ptr %5) #6
  store i32 0, ptr %5, align 4
  call void @llvm.lifetime.start.p0(i64 4, ptr %6) #6
  call void @llvm.lifetime.start.p0(i64 144, ptr %7) #6
  call void @llvm.lifetime.start.p0(i64 4, ptr %8) #6
  store i32 0, ptr %8, align 4
  %10 = load i8, ptr @inited, align 1, !range !8, !noundef !9
  %11 = trunc i8 %10 to i1
  br i1 %11, label %12, label %13

12:                                               ; preds = %0
  store i32 0, ptr %1, align 4
  store i32 1, ptr %9, align 4
  br label %113

13:                                               ; preds = %0
  store i8 1, ptr @inited, align 1
  %14 = call i32 @acct_gather_energy_init()
  %15 = load i32, ptr %8, align 4
  %16 = add nsw i32 %15, %14
  store i32 %16, ptr %8, align 4
  %17 = call i32 @acct_gather_profile_init()
  %18 = load i32, ptr %8, align 4
  %19 = add nsw i32 %18, %17
  store i32 %19, ptr %8, align 4
  %20 = call i32 @acct_gather_interconnect_init()
  %21 = load i32, ptr %8, align 4
  %22 = add nsw i32 %21, %20
  store i32 %22, ptr %8, align 4
  %23 = call i32 @acct_gather_filesystem_init()
  %24 = load i32, ptr %8, align 4
  %25 = add nsw i32 %24, %23
  store i32 %25, ptr %8, align 4
  %26 = load i32, ptr %8, align 4
  %27 = icmp ne i32 %26, 0
  br i1 %27, label %28, label %30

28:                                               ; preds = %13
  %29 = load i32, ptr %8, align 4
  store i32 %29, ptr %1, align 4
  store i32 1, ptr %9, align 4
  br label %113

30:                                               ; preds = %13
  %31 = call i32 @acct_gather_energy_g_conf_options(ptr noundef %4, ptr noundef %5)
  %32 = load i32, ptr %8, align 4
  %33 = add nsw i32 %32, %31
  store i32 %33, ptr %8, align 4
  %34 = call i32 @acct_gather_profile_g_conf_options(ptr noundef %4, ptr noundef %5)
  %35 = load i32, ptr %8, align 4
  %36 = add nsw i32 %35, %34
  store i32 %36, ptr %8, align 4
  %37 = call i32 @acct_gather_interconnect_g_conf_options(ptr noundef %4, ptr noundef %5)
  %38 = load i32, ptr %8, align 4
  %39 = add nsw i32 %38, %37
  store i32 %39, ptr %8, align 4
  %40 = call i32 @acct_gather_filesystem_g_conf_options(ptr noundef %4, ptr noundef %5)
  %41 = load i32, ptr %8, align 4
  %42 = add nsw i32 %41, %40
  store i32 %42, ptr %8, align 4
  %43 = load i32, ptr %5, align 4
  %44 = add nsw i32 %43, 1
  %45 = sext i32 %44 to i64
  %46 = mul i64 %45, 56
  %47 = call ptr @slurm_xrecalloc(ptr noundef %4, i64 noundef 1, i64 noundef %46, i1 noundef zeroext true, i1 noundef zeroext false, ptr noundef @.str, i32 noundef 125, ptr noundef @__func__.acct_gather_conf_init)
  %48 = load ptr, ptr %4, align 8
  %49 = call ptr @s_p_hashtbl_create(ptr noundef %48)
  store ptr %49, ptr %2, align 8
  %50 = call ptr @get_extra_conf_path(ptr noundef @.str.1)
  store ptr %50, ptr %3, align 8
  %51 = load ptr, ptr %3, align 8
  %52 = icmp eq ptr %51, null
  br i1 %52, label %57, label %53

53:                                               ; preds = %30
  %54 = load ptr, ptr %3, align 8
  %55 = call i32 @stat(ptr noundef %54, ptr noundef %7) #6
  %56 = icmp eq i32 %55, -1
  br i1 %56, label %57, label %69

57:                                               ; preds = %53, %30
  br label %58

58:                                               ; preds = %57
  br label %59

59:                                               ; preds = %58
  %60 = call i32 @get_log_level()
  %61 = icmp sge i32 %60, 6
  br i1 %61, label %62, label %64

62:                                               ; preds = %59
  %63 = load ptr, ptr %3, align 8
  call void (i32, ptr, ...) @log_var(i32 noundef 6, ptr noundef @.str.2, ptr noundef %63)
  br label %64

64:                                               ; preds = %62, %59
  br label %65

65:                                               ; preds = %64
  br label %66

66:                                               ; preds = %65
  br label %67

67:                                               ; preds = %66
  br label %68

68:                                               ; preds = %67
  br label %88

69:                                               ; preds = %53
  br label %70

70:                                               ; preds = %69
  br label %71

71:                                               ; preds = %70
  %72 = call i32 @get_log_level()
  %73 = icmp sge i32 %72, 6
  br i1 %73, label %74, label %76

74:                                               ; preds = %71
  %75 = load ptr, ptr %3, align 8
  call void (i32, ptr, ...) @log_var(i32 noundef 6, ptr noundef @.str.3, ptr noundef %75)
  br label %76

76:                                               ; preds = %74, %71
  br label %77

77:                                               ; preds = %76
  br label %78

78:                                               ; preds = %77
  br label %79

79:                                               ; preds = %78
  br label %80

80:                                               ; preds = %79
  %81 = load ptr, ptr %2, align 8
  %82 = load ptr, ptr %3, align 8
  %83 = call i32 @s_p_parse_file(ptr noundef %81, ptr noundef null, ptr noundef %82, i32 noundef 0, ptr noundef null)
  %84 = icmp eq i32 %83, -1
  br i1 %84, label %85, label %87

85:                                               ; preds = %80
  %86 = load ptr, ptr %3, align 8
  call void (ptr, ...) @fatal(ptr noundef @.str.4, ptr noundef %86) #7
  unreachable

87:                                               ; preds = %80
  br label %88

88:                                               ; preds = %87, %68
  %89 = load ptr, ptr %2, align 8
  %90 = call i32 @_process_tbl(ptr noundef %89)
  %91 = load i32, ptr %8, align 4
  %92 = add nsw i32 %91, %90
  store i32 %92, ptr %8, align 4
  %93 = load ptr, ptr %2, align 8
  %94 = load ptr, ptr %4, align 8
  %95 = load i32, ptr %5, align 4
  %96 = call ptr @s_p_pack_hashtbl(ptr noundef %93, ptr noundef %94, i32 noundef %95)
  store ptr %96, ptr @acct_gather_options_buf, align 8
  store i32 0, ptr %6, align 4
  br label %97

97:                                               ; preds = %107, %88
  %98 = load i32, ptr %6, align 4
  %99 = load i32, ptr %5, align 4
  %100 = icmp slt i32 %98, %99
  br i1 %100, label %101, label %110

101:                                              ; preds = %97
  %102 = load ptr, ptr %4, align 8
  %103 = load i32, ptr %6, align 4
  %104 = sext i32 %103 to i64
  %105 = getelementptr inbounds %struct.conf_file_options, ptr %102, i64 %104
  %106 = getelementptr inbounds nuw %struct.conf_file_options, ptr %105, i32 0, i32 0
  call void @slurm_xfree(ptr noundef %106)
  br label %107

107:                                              ; preds = %101
  %108 = load i32, ptr %6, align 4
  %109 = add nsw i32 %108, 1
  store i32 %109, ptr %6, align 4
  br label %97, !llvm.loop !10

110:                                              ; preds = %97
  call void @slurm_xfree(ptr noundef %4)
  call void @slurm_xfree(ptr noundef %3)
  %111 = load ptr, ptr %2, align 8
  call void @s_p_hashtbl_destroy(ptr noundef %111)
  %112 = load i32, ptr %8, align 4
  store i32 %112, ptr %1, align 4
  store i32 1, ptr %9, align 4
  br label %113

113:                                              ; preds = %110, %28, %12
  call void @llvm.lifetime.end.p0(i64 4, ptr %8) #6
  call void @llvm.lifetime.end.p0(i64 144, ptr %7) #6
  call void @llvm.lifetime.end.p0(i64 4, ptr %6) #6
  call void @llvm.lifetime.end.p0(i64 4, ptr %5) #6
  call void @llvm.lifetime.end.p0(i64 8, ptr %4) #6
  call void @llvm.lifetime.end.p0(i64 8, ptr %3) #6
  call void @llvm.lifetime.end.p0(i64 8, ptr %2) #6
  %114 = load i32, ptr %1, align 4
  ret i32 %114
}