; Function Attrs: nounwind uwtable
define dso_local i32 @acct_gather_conf_init() local_unnamed_addr #0 {
  %1 = alloca ptr, align 8
  %2 = alloca ptr, align 8
  %3 = alloca i32, align 4
  %4 = alloca %struct.stat, align 8
  call void @llvm.lifetime.start.p0(i64 8, ptr nonnull %1) #9
  call void @llvm.lifetime.start.p0(i64 8, ptr nonnull %2) #9
  store ptr null, ptr %2, align 8
  call void @llvm.lifetime.start.p0(i64 4, ptr nonnull %3) #9
  store i32 0, ptr %3, align 4
  call void @llvm.lifetime.start.p0(i64 144, ptr nonnull %4) #9
  %.b22 = load i1, ptr @inited, align 1
  br i1 %.b22, label %58, label %5

5:                                                ; preds = %0
  store i1 true, ptr @inited, align 1
  %6 = tail call i32 @acct_gather_energy_init() #9
  %7 = tail call i32 @acct_gather_profile_init() #9
  %8 = add nsw i32 %7, %6
  %9 = tail call i32 @acct_gather_interconnect_init() #9
  %10 = add nsw i32 %8, %9
  %11 = tail call i32 @acct_gather_filesystem_init() #9
  %12 = add nsw i32 %10, %11
  %.not = icmp eq i32 %12, 0
  br i1 %.not, label %13, label %58

13:                                               ; preds = %5
  %14 = call i32 @acct_gather_energy_g_conf_options(ptr noundef nonnull %2, ptr noundef nonnull %3) #9
  %15 = call i32 @acct_gather_profile_g_conf_options(ptr noundef nonnull %2, ptr noundef nonnull %3) #9
  %16 = add nsw i32 %15, %14
  %17 = call i32 @acct_gather_interconnect_g_conf_options(ptr noundef nonnull %2, ptr noundef nonnull %3) #9
  %18 = add nsw i32 %16, %17
  %19 = call i32 @acct_gather_filesystem_g_conf_options(ptr noundef nonnull %2, ptr noundef nonnull %3) #9
  %20 = add nsw i32 %18, %19
  %21 = load i32, ptr %3, align 4
  %22 = add nsw i32 %21, 1
  %23 = sext i32 %22 to i64
  %24 = mul nsw i64 %23, 56
  %25 = call ptr @slurm_xrecalloc(ptr noundef nonnull %2, i64 noundef 1, i64 noundef %24, i1 noundef zeroext true, i1 noundef zeroext false, ptr noundef nonnull @.str, i32 noundef 125, ptr noundef nonnull @__func__.acct_gather_conf_init) #9
  %26 = load ptr, ptr %2, align 8
  %27 = call ptr @s_p_hashtbl_create(ptr noundef %26) #9
  %28 = call ptr @get_extra_conf_path(ptr noundef nonnull @.str.1) #9
  store ptr %28, ptr %1, align 8
  %29 = icmp eq ptr %28, null
  br i1 %29, label %33, label %30

30:                                               ; preds = %13
  %31 = call i32 @stat(ptr noundef nonnull %28, ptr noundef nonnull %4) #9
  %32 = icmp eq i32 %31, -1
  br i1 %32, label %33, label %37

33:                                               ; preds = %30, %13
  %34 = call i32 @get_log_level() #9
  %35 = icmp sgt i32 %34, 5
  br i1 %35, label %36, label %45

36:                                               ; preds = %33
  call void (i32, ptr, ...) @log_var(i32 noundef 6, ptr noundef nonnull @.str.2, ptr noundef %28) #9
  br label %45

37:                                               ; preds = %30
  %38 = call i32 @get_log_level() #9
  %39 = icmp sgt i32 %38, 5
  br i1 %39, label %40, label %41

40:                                               ; preds = %37
  call void (i32, ptr, ...) @log_var(i32 noundef 6, ptr noundef nonnull @.str.3, ptr noundef nonnull %28) #9
  br label %41

41:                                               ; preds = %40, %37
  %42 = call i32 @s_p_parse_file(ptr noundef %27, ptr noundef null, ptr noundef nonnull %28, i32 noundef 0, ptr noundef null) #9
  %43 = icmp eq i32 %42, -1
  br i1 %43, label %44, label %45

44:                                               ; preds = %41
  call void (ptr, ...) @fatal(ptr noundef nonnull @.str.4, ptr noundef nonnull %28) #10
  unreachable

45:                                               ; preds = %41, %33, %36
  %46 = call fastcc i32 @_process_tbl(ptr noundef %27)
  %47 = add nsw i32 %20, %46
  %48 = load ptr, ptr %2, align 8
  %49 = load i32, ptr %3, align 4
  %50 = call ptr @s_p_pack_hashtbl(ptr noundef %27, ptr noundef %48, i32 noundef %49) #9
  store ptr %50, ptr @acct_gather_options_buf, align 8
  %51 = load i32, ptr %3, align 4
  %52 = icmp sgt i32 %51, 0
  br i1 %52, label %.lr.ph, label %._crit_edge

.lr.ph:                                           ; preds = %45, %.lr.ph
  %indvars.iv = phi i64 [ %indvars.iv.next, %.lr.ph ], [ 0, %45 ]
  %53 = load ptr, ptr %2, align 8
  %54 = getelementptr inbounds nuw %struct.conf_file_options, ptr %53, i64 %indvars.iv
  call void @slurm_xfree(ptr noundef %54) #9
  %indvars.iv.next = add nuw nsw i64 %indvars.iv, 1
  %55 = load i32, ptr %3, align 4
  %56 = sext i32 %55 to i64
  %57 = icmp slt i64 %indvars.iv.next, %56
  br i1 %57, label %.lr.ph, label %._crit_edge, !llvm.loop !8

._crit_edge:                                      ; preds = %.lr.ph, %45
  call void @slurm_xfree(ptr noundef nonnull %2) #9
  call void @slurm_xfree(ptr noundef nonnull %1) #9
  call void @s_p_hashtbl_destroy(ptr noundef %27) #9
  br label %58

58:                                               ; preds = %5, %0, %._crit_edge
  %.019 = phi i32 [ %47, %._crit_edge ], [ 0, %0 ], [ %12, %5 ]
  call void @llvm.lifetime.end.p0(i64 144, ptr nonnull %4) #9
  call void @llvm.lifetime.end.p0(i64 4, ptr nonnull %3) #9
  call void @llvm.lifetime.end.p0(i64 8, ptr nonnull %2) #9
  call void @llvm.lifetime.end.p0(i64 8, ptr nonnull %1) #9
  ret i32 %.019
}